; Function Attrs: nounwind uwtable
define void @dt_dev_pixelpipe_synch_top(ptr noundef %0, ptr noundef captures(none) %1) local_unnamed_addr #0 {
  %3 = getelementptr inbounds nuw i8, ptr %0, i64 480
  %4 = tail call i32 @pthread_mutex_lock(ptr noundef nonnull %3) #27
  %5 = getelementptr inbounds nuw i8, ptr %1, i64 2024
  %6 = load ptr, ptr %5, align 8, !tbaa !240
  %7 = getelementptr inbounds nuw i8, ptr %1, i64 2016
  %8 = load i32, ptr %7, align 16, !tbaa !226
  %9 = add nsw i32 %8, -1
  %10 = tail call ptr @g_list_nth(ptr noundef %6, i32 noundef %9) #27
  %.not = icmp eq ptr %10, null
  %11 = load i32, ptr getelementptr inbounds nuw (i8, ptr @darktable, i64 8), align 8, !tbaa !48
  %12 = and i32 %11, 2097152
  %.not12 = icmp eq i32 %12, 0
  br i1 %.not, label %18, label %13

13:                                               ; preds = %2
  br i1 %.not12, label %17, label %14

14:                                               ; preds = %13
  %15 = load ptr, ptr %10, align 8, !tbaa !86
  %16 = load ptr, ptr %15, align 8, !tbaa !228
  tail call void (ptr, ptr, ptr, i32, ptr, ptr, ptr, ...) @dt_print_pipe_ext(ptr noundef nonnull @.str.62, ptr noundef nonnull %0, ptr noundef %16, i32 noundef -2, ptr noundef null, ptr noundef null, ptr noundef nonnull @.str.58)
  br label %17

17:                                               ; preds = %14, %13
  %.val = load ptr, ptr %10, align 8, !tbaa !86
  tail call fastcc void @_dev_pixelpipe_synch(ptr noundef nonnull %0, ptr noundef nonnull %1, ptr %.val)
  br label %20

18:                                               ; preds = %2
  br i1 %.not12, label %20, label %19

19:                                               ; preds = %18
  tail call void (ptr, ptr, ptr, i32, ptr, ptr, ptr, ...) @dt_print_pipe_ext(ptr noundef nonnull @.str.63, ptr noundef nonnull %0, ptr noundef null, i32 noundef -2, ptr noundef null, ptr noundef null, ptr noundef nonnull @.str.58)
  br label %20

20:                                               ; preds = %18, %19, %17
  %21 = tail call i32 @pthread_mutex_unlock(ptr noundef nonnull %3) #27
  ret void
}